; Function Attrs: nofree norecurse nosync nounwind memory(argmem: readwrite) uwtable
define internal void @rgb16beToUV_c(ptr noundef writeonly captures(none) %0, ptr noundef writeonly captures(none) %1, ptr readnone captures(none) %2, ptr noundef readonly captures(none) %3, ptr readnone captures(none) %4, i32 noundef %5, ptr noundef readonly captures(none) %6, ptr readnone captures(none) %7) #1 {
  %9 = getelementptr inbounds nuw i8, ptr %6, i64 12
  %10 = load i32, ptr %9, align 4, !tbaa !42
  %11 = getelementptr inbounds nuw i8, ptr %6, i64 16
  %12 = load i32, ptr %11, align 4, !tbaa !42
  %13 = shl nsw i32 %12, 5
  %14 = getelementptr inbounds nuw i8, ptr %6, i64 20
  %15 = load i32, ptr %14, align 4, !tbaa !42
  %16 = shl nsw i32 %15, 11
  %17 = getelementptr inbounds nuw i8, ptr %6, i64 24
  %18 = load i32, ptr %17, align 4, !tbaa !42
  %19 = getelementptr inbounds nuw i8, ptr %6, i64 28
  %20 = load i32, ptr %19, align 4, !tbaa !42
  %21 = shl nsw i32 %20, 5
  %22 = getelementptr inbounds nuw i8, ptr %6, i64 32
  %23 = load i32, ptr %22, align 4, !tbaa !42
  %24 = shl nsw i32 %23, 11
  %25 = icmp sgt i32 %5, 0
  br i1 %25, label %.lr.ph.preheader, label %rgb16_32ToUV_c_template.exit

.lr.ph.preheader:                                 ; preds = %8
  %wide.trip.count = zext nneg i32 %5 to i64
  br label %.lr.ph

.lr.ph:                                           ; preds = %.lr.ph.preheader, %.lr.ph
  %indvars.iv = phi i64 [ 0, %.lr.ph.preheader ], [ %indvars.iv.next, %.lr.ph ]
  %26 = shl nuw nsw i64 %indvars.iv, 1
  %27 = getelementptr inbounds nuw i8, ptr %3, i64 %26
  %28 = load i16, ptr %27, align 1, !tbaa !34
  %29 = tail call i16 @llvm.bswap.i16(i16 %28)
  %30 = zext i16 %29 to i32
  %31 = and i32 %30, 31
  %32 = and i32 %30, 2016
  %33 = and i32 %30, 63488
  %34 = mul nsw i32 %33, %10
  %35 = mul nsw i32 %13, %32
  %36 = mul nsw i32 %16, %31
  %37 = add i32 %35, 1073807360
  %38 = add i32 %37, %34
  %39 = add i32 %38, %36
  %40 = lshr i32 %39, 17
  %41 = trunc nuw nsw i32 %40 to i16
  %42 = getelementptr inbounds nuw i16, ptr %0, i64 %indvars.iv
  store i16 %41, ptr %42, align 2, !tbaa !43
  %43 = mul nsw i32 %33, %18
  %44 = mul nsw i32 %21, %32
  %45 = mul nsw i32 %24, %31
  %46 = add i32 %44, 1073807360
  %47 = add i32 %46, %43
  %48 = add i32 %47, %45
  %49 = lshr i32 %48, 17
  %50 = trunc nuw nsw i32 %49 to i16
  %51 = getelementptr inbounds nuw i16, ptr %1, i64 %indvars.iv
  store i16 %50, ptr %51, align 2, !tbaa !43
  %indvars.iv.next = add nuw nsw i64 %indvars.iv, 1
  %exitcond.not = icmp eq i64 %indvars.iv.next, %wide.trip.count
  br i1 %exitcond.not, label %rgb16_32ToUV_c_template.exit, label %.lr.ph, !llvm.loop !86

rgb16_32ToUV_c_template.exit:                     ; preds = %.lr.ph, %8
  ret void
}